target datalayout = "e-m:e-p270:32:32-p271:32:32-p272:64:64-i64:64-i128:128-f80:128-n8:16:32:64-S128"
target triple = "x86_64-pc-linux-gnu"

%struct._cms_io_handler = type { ptr, ptr, i32, i32, [256 x i8], ptr, ptr, ptr, ptr, ptr }
%struct.FILEMEM = type { ptr, i32, i32, i32 }

; Function Attrs: nounwind uwtable
define internal i32 @MemoryWrite(ptr noundef %0, i32 noundef %1, ptr noundef %2) #0 {
  %4 = alloca i32, align 4
  %5 = alloca ptr, align 8
  %6 = alloca i32, align 4
  %7 = alloca ptr, align 8
  %8 = alloca ptr, align 8
  store ptr %0, ptr %5, align 8
  store i32 %1, ptr %6, align 4
  store ptr %2, ptr %7, align 8
  %9 = load ptr, ptr %5, align 8
  %10 = getelementptr inbounds %struct._cms_io_handler, ptr %9, i32 0, i32 0
  %11 = load ptr, ptr %10, align 8
  store ptr %11, ptr %8, align 8
  %12 = load ptr, ptr %8, align 8
  %13 = icmp eq ptr %12, null
  br i1 %13, label %14, label %15

14:                                               ; preds = %3
  store i32 0, ptr %4, align 4
  br label %68

15:                                               ; preds = %3
  %16 = load ptr, ptr %8, align 8
  %17 = getelementptr inbounds %struct.FILEMEM, ptr %16, i32 0, i32 2
  %18 = load i32, ptr %17, align 4
  %19 = load i32, ptr %6, align 4
  %20 = add i32 %18, %19
  %21 = load ptr, ptr %8, align 8
  %22 = getelementptr inbounds %struct.FILEMEM, ptr %21, i32 0, i32 1
  %23 = load i32, ptr %22, align 8
  %24 = icmp ugt i32 %20, %23
  br i1 %24, label %25, label %33

25:                                               ; preds = %15
  %26 = load ptr, ptr %8, align 8
  %27 = getelementptr inbounds %struct.FILEMEM, ptr %26, i32 0, i32 1
  %28 = load i32, ptr %27, align 8
  %29 = load ptr, ptr %8, align 8
  %30 = getelementptr inbounds %struct.FILEMEM, ptr %29, i32 0, i32 2
  %31 = load i32, ptr %30, align 4
  %32 = sub i32 %28, %31
  store i32 %32, ptr %6, align 4
  br label %33

33:                                               ; preds = %25, %15
  %34 = load i32, ptr %6, align 4
  %35 = icmp eq i32 %34, 0
  br i1 %35, label %36, label %37

36:                                               ; preds = %33
  store i32 1, ptr %4, align 4
  br label %68

37:                                               ; preds = %33
  %38 = load ptr, ptr %8, align 8
  %39 = getelementptr inbounds %struct.FILEMEM, ptr %38, i32 0, i32 0
  %40 = load ptr, ptr %39, align 8
  %41 = load ptr, ptr %8, align 8
  %42 = getelementptr inbounds %struct.FILEMEM, ptr %41, i32 0, i32 2
  %43 = load i32, ptr %42, align 4
  %44 = zext i32 %43 to i64
  %45 = getelementptr inbounds i8, ptr %40, i64 %44
  %46 = load ptr, ptr %7, align 8
  %47 = load i32, ptr %6, align 4
  %48 = zext i32 %47 to i64
  call void @llvm.memmove.p0.p0.i64(ptr align 1 %45, ptr align 1 %46, i64 %48, i1 false)
  %49 = load i32, ptr %6, align 4
  %50 = load ptr, ptr %8, align 8
  %51 = getelementptr inbounds %struct.FILEMEM, ptr %50, i32 0, i32 2
  %52 = load i32, ptr %51, align 4
  %53 = add i32 %52, %49
  store i32 %53, ptr %51, align 4
  %54 = load ptr, ptr %8, align 8
  %55 = getelementptr inbounds %struct.FILEMEM, ptr %54, i32 0, i32 2
  %56 = load i32, ptr %55, align 4
  %57 = load ptr, ptr %5, align 8
  %58 = getelementptr inbounds %struct._cms_io_handler, ptr %57, i32 0, i32 2
  %59 = load i32, ptr %58, align 8
  %60 = icmp ugt i32 %56, %59
  br i1 %60, label %61, label %67

61:                                               ; preds = %37
  %62 = load ptr, ptr %8, align 8
  %63 = getelementptr inbounds %struct.FILEMEM, ptr %62, i32 0, i32 2
  %64 = load i32, ptr %63, align 4
  %65 = load ptr, ptr %5, align 8
  %66 = getelementptr inbounds %struct._cms_io_handler, ptr %65, i32 0, i32 2
  store i32 %64, ptr %66, align 8
  br label %67

67:                                               ; preds = %61, %37
  store i32 1, ptr %4, align 4
  br label %68

68:                                               ; preds = %67, %36, %14
  %69 = load i32, ptr %4, align 4
  ret i32 %69
}