; Function Attrs: mustprogress nofree norecurse nosync nounwind willreturn memory(readwrite, inaccessiblemem: none) uwtable
define internal range(i32 0, 2) i32 @MemoryWrite(ptr nocapture noundef %0, i32 noundef %1, ptr nocapture noundef readonly %2) #2 {
  %4 = load ptr, ptr %0, align 8
  %5 = icmp eq ptr %4, null
  br i1 %5, label %26, label %6

6:                                                ; preds = %3
  %7 = getelementptr inbounds i8, ptr %4, i64 12
  %8 = load i32, ptr %7, align 4
  %9 = add i32 %8, %1
  %10 = getelementptr inbounds i8, ptr %4, i64 8
  %11 = load i32, ptr %10, align 8
  %12 = icmp ugt i32 %9, %11
  %13 = sub i32 %11, %8
  %spec.select = select i1 %12, i32 %13, i32 %1
  %14 = icmp eq i32 %spec.select, 0
  br i1 %14, label %26, label %15

15:                                               ; preds = %6
  %16 = load ptr, ptr %4, align 8
  %17 = zext i32 %8 to i64
  %18 = getelementptr inbounds i8, ptr %16, i64 %17
  %19 = zext i32 %spec.select to i64
  tail call void @llvm.memmove.p0.p0.i64(ptr align 1 %18, ptr align 1 %2, i64 %19, i1 false)
  %20 = load i32, ptr %7, align 4
  %21 = add i32 %20, %spec.select
  store i32 %21, ptr %7, align 4
  %22 = getelementptr inbounds i8, ptr %0, i64 16
  %23 = load i32, ptr %22, align 8
  %24 = icmp ugt i32 %21, %23
  br i1 %24, label %25, label %26

25:                                               ; preds = %15
  store i32 %21, ptr %22, align 8
  br label %26

26:                                               ; preds = %15, %25, %6, %3
  %.0 = phi i32 [ 0, %3 ], [ 1, %6 ], [ 1, %25 ], [ 1, %15 ]
  ret i32 %.0
}